(lp0
(i__main__
Circle
p1
(dp2
S'color'
p3
(I0
I0
I255
tp4
sS'text'
p5
V|q1|q0|q2|
p6
sS'lines'
p7
(lp8
(i__main__
Line
p9
(dp10
S'circle_a'
p11
g6
sg5
V1
p12
sS'circle_b'
p13
V|q0|q3|
p14
sba(i__main__
Line
p15
(dp16
g11
g6
sg5
V0
p17
sg13
V|q1|q0|q2|
p18
sbasS'pos'
p19
(I1050
I1033
tp20
sS'final'
p21
I00
sba(i__main__
Circle
p22
(dp23
g3
(I0
I120
I0
tp24
sg5
V|q0|q3|
p25
sg7
(lp26
(i__main__
Line
p27
(dp28
g11
g25
sg5
g12
sg13
V|q0|q3|
p29
sba(i__main__
Line
p30
(dp31
g11
g25
sg5
g17
sg13
V|q1|q0|q3|
p32
sbasg19
(I897
I489
tp33
sg21
I01
sba(i__main__
Circle
p34
(dp35
g3
(I255
I0
I0
tp36
sg5
Vq0
p37
sg7
(lp38
(i__main__
Line
p39
(dp40
g11
g37
sg5
g12
sg13
g37
sba(i__main__
Line
p41
(dp42
g11
g37
sg5
g17
sg13
V|q1|q0|
p43
sbasg19
(I1116
I252
tp44
sg21
I00
sba(i__main__
Circle
p45
(dp46
g3
g24
sg5
V|q1|q0|q3|
p47
sg7
(lp48
(i__main__
Line
p49
(dp50
g11
g47
sg5
g12
sg13
V|q0|q3|
p51
sba(i__main__
Line
p52
(dp53
g11
g47
sg5
g17
sg13
V|q1|q0|q3|q2|
p54
sbasg19
(I560
I127
tp55
sg21
I01
sba(i__main__
Circle
p56
(dp57
g3
g24
sg5
V|q1|q0|q3|q2|
p58
sg7
(lp59
(i__main__
Line
p60
(dp61
g11
g58
sg5
g12
sg13
V|q0|q3|
p62
sba(i__main__
Line
p63
(dp64
g11
g58
sg5
g17
sg13
V|q1|q0|q3|q2|
p65
sbasg19
(I258
I942
tp66
sg21
I01
sba(i__main__
Circle
p67
(dp68
g3
g4
sg5
V|q1|q0|
p69
sg7
(lp70
(i__main__
Line
p71
(dp72
g11
g69
sg5
g12
sg13
g37
sba(i__main__
Line
p73
(dp74
g11
g69
sg5
g17
sg13
V|q1|q0|q2|
p75
sbasg19
(I1300
I599
tp76
sg21
I00
sba.S'DFA'
p0
.