(lp0
(i__main__
Circle
p1
(dp2
S'color'
p3
(I255
I0
I0
tp4
sS'text'
p5
Vq0
p6
sS'lines'
p7
(lp8
(i__main__
Line
p9
(dp10
S'circle_a'
p11
g6
sg5
V1
p12
sS'circle_b'
p13
g6
sba(i__main__
Line
p14
(dp15
g11
g6
sg5
V0
p16
sg13
g6
sba(i__main__
Line
p17
(dp18
g11
g6
sg5
V0
p19
sg13
Vq1
p20
sbasS'pos'
p21
(I367
I458
tp22
sS'final'
p23
I00
sba(i__main__
Circle
p24
(dp25
g3
(I0
I0
I255
tp26
sg5
Vq2
p27
sg7
(lp28
(i__main__
Line
p29
(dp30
g11
g27
sg5
V1
p31
sg13
Vq3
p32
sbasg21
(I1104
I545
tp33
sg23
I00
sba(i__main__
Circle
p34
(dp35
g3
(I0
I120
I0
tp36
sg5
g32
sg7
(lp37
(i__main__
Line
p38
(dp39
g11
g32
sg5
V1
p40
sg13
g32
sba(i__main__
Line
p41
(dp42
g11
g32
sg5
V0
p43
sg13
g32
sbasg21
(I1417
I576
tp44
sg23
I01
sba(i__main__
Circle
p45
(dp46
g3
g26
sg5
g20
sg7
(lp47
(i__main__
Line
p48
(dp49
g11
g20
sg5
V0
p50
sg13
g27
sbasg21
(I689
I479
tp51
sg23
I00
sba.S'NFA'
p0
.