(lp0
(i__main__
Circle
p1
(dp2
S'color'
p3
(I255
I0
I0
tp4
sS'text'
p5
V0
p6
sS'lines'
p7
(lp8
(i__main__
Line
p9
(dp10
S'circle_a'
p11
g6
sg5
Va
p12
sS'circle_b'
p13
V1
p14
sba(i__main__
Line
p15
(dp16
g11
g6
sg5
Va
p17
sg13
V2
p18
sbasS'pos'
p19
(I165
I569
tp20
sS'final'
p21
I01
sba(i__main__
Circle
p22
(dp23
g3
(I0
I0
I255
tp24
sg5
g18
sg7
(lp25
(i__main__
Line
p26
(dp27
g11
g18
sg5
Vb
p28
sg13
V3
p29
sba(i__main__
Line
p30
(dp31
g11
g18
sg5
Vb
p32
sg13
g14
sbasg19
(I857
I1028
tp33
sg21
I00
sba(i__main__
Circle
p34
(dp35
g3
g24
sg5
g29
sg7
(lp36
(i__main__
Line
p37
(dp38
g11
g29
sg5
Va
p39
sg13
g14
sba(i__main__
Line
p40
(dp41
g11
g29
sg5
Va
p42
sg13
g18
sbasg19
(I1338
I571
tp43
sg21
I00
sba(i__main__
Circle
p44
(dp45
g3
(I0
I120
I0
tp46
sg5
g14
sg7
(lp47
(i__main__
Line
p48
(dp49
g11
g14
sg5
Va
p50
sg13
g18
sba(i__main__
Line
p51
(dp52
g11
g14
sg5
Va
p53
sg13
g14
sbasg19
(I830
I298
tp54
sg21
I01
sba.