(lp0
(i__main__
Circle
p1
(dp2
S'color'
p3
(I255
I0
I0
tp4
sS'text'
p5
Va
p6
sS'lines'
p7
(lp8
(i__main__
Line
p9
(dp10
S'circle_a'
p11
g6
sg5
V0
p12
sS'circle_b'
p13
g6
sba(i__main__
Line
p14
(dp15
g11
g6
sg5
V1
p16
sg13
g6
sba(i__main__
Line
p17
(dp18
g11
g6
sg5
V1
p19
sg13
Vb
p20
sbasS'pos'
p21
(I405
I348
tp22
sS'final'
p23
I00
sba(i__main__
Circle
p24
(dp25
g3
(I0
I0
I255
tp26
sg5
g20
sg7
(lp27
(i__main__
Line
p28
(dp29
g11
g20
sg5
V0
p30
sg13
Vc
p31
sba(i__main__
Line
p32
(dp33
g11
g20
sg5
V1
p34
sg13
g31
sbasg21
(I1046
I428
tp35
sg23
I00
sba(i__main__
Circle
p36
(dp37
g3
(I0
I120
I0
tp38
sg5
g31
sg7
(lp39
sg21
(I812
I886
tp40
sg23
I01
sba.S'NFA'
p0
.