(lp0
(i__main__
Circle
p1
(dp2
S'color'
p3
(I0
I120
I0
tp4
sS'text'
p5
Va
p6
sS'lines'
p7
(lp8
(i__main__
Line
p9
(dp10
S'circle_a'
p11
g6
sg5
V1
p12
sS'circle_b'
p13
Vb
p14
sbasS'pos'
p15
(I803
I585
tp16
sS'final'
p17
I01
sba(i__main__
Circle
p18
(dp19
g3
(I0
I0
I255
tp20
sg5
g14
sg7
(lp21
sg15
(I1188
I706
tp22
sg17
I00
sba.