(lp0
(i__main__
Circle
p1
(dp2
S'color'
p3
(I0
I0
I255
tp4
sS'text'
p5
Va
p6
sS'pos'
p7
(I252
I159
tp8
sS'final'
p9
I00
sba(i__main__
Circle
p10
(dp11
g3
g4
sg5
Vb
p12
sg7
(I760
I584
tp13
sg9
I00
sba.(lp0
(i__main__
Line
p1
(dp2
S'circle_a'
p3
(i__main__
Circle
p4
(dp5
S'color'
p6
(I0
I0
I255
tp7
sS'text'
p8
Va
p9
sS'pos'
p10
(I252
I159
tp11
sS'final'
p12
I00
sbsg8
V1
p13
sS'circle_b'
p14
(i__main__
Circle
p15
(dp16
g6
g7
sg8
Vb
p17
sg10
(I760
I584
tp18
sg12
I00
sbsba.