(lp0
(i__main__
Circle
p1
(dp2
S'color'
p3
(I0
I0
I255
tp4
sS'text'
p5
Vq0
p6
sS'pos'
p7
(I66
I618
tp8
sS'final'
p9
I00
sba(i__main__
Circle
p10
(dp11
g3
g4
sg5
V0
p12
sg7
(I400
I328
tp13
sg9
I00
sba(i__main__
Circle
p14
(dp15
g3
g4
sg5
V00
p16
sg7
(I729
I135
tp17
sg9
I00
sba(i__main__
Circle
p18
(dp19
g3
g4
sg5
V01
p20
sg7
(I749
I453
tp21
sg9
I00
sba(i__main__
Circle
p22
(dp23
g3
(I0
I120
I0
tp24
sg5
V000
p25
sg7
(I1229
I146
tp26
sg9
I01
sba(i__main__
Circle
p27
(dp28
g3
g24
sg5
V001
p29
sg7
(I1501
I294
tp30
sg9
I01
sba(i__main__
Circle
p31
(dp32
g3
g24
sg5
V010
p33
sg7
(I1122
I383
tp34
sg9
I01
sba(i__main__
Circle
p35
(dp36
g3
g4
sg5
V011
p37
sg7
(I1418
I612
tp38
sg9
I00
sba(i__main__
Circle
p39
(dp40
g3
g4
sg5
V1
p41
sg7
(I370
I860
tp42
sg9
I00
sba(i__main__
Circle
p43
(dp44
g3
g4
sg5
V10
p45
sg7
(I751
I751
tp46
sg9
I00
sba(i__main__
Circle
p47
(dp48
g3
g4
sg5
V11
p49
sg7
(I761
I1076
tp50
sg9
I00
sba(i__main__
Circle
p51
(dp52
g3
g24
sg5
V100
p53
sg7
(I1191
I719
tp54
sg9
I01
sba(i__main__
Circle
p55
(dp56
g3
g4
sg5
V101
p57
sg7
(I1457
I829
tp58
sg9
I00
sba(i__main__
Circle
p59
(dp60
g3
g4
sg5
V110
p61
sg7
(I1135
I975
tp62
sg9
I00
sba(i__main__
Circle
p63
(dp64
g3
(I255
I0
I0
tp65
sg5
V111
p66
sg7
(I1433
I1132
tp67
sg9
I00
sba.(lp0
(i__main__
Line
p1
(dp2
S'circle_a'
p3
Vq0
p4
sS'text'
p5
V0
p6
sS'circle_b'
p7
V0
p8
sba(i__main__
Line
p9
(dp10
g3
g8
sg5
V0
p11
sg7
V00
p12
sba(i__main__
Line
p13
(dp14
g3
g12
sg5
V0
p15
sg7
V000
p16
sba(i__main__
Line
p17
(dp18
g3
g8
sg5
V1
p19
sg7
V01
p20
sba(i__main__
Line
p21
(dp22
g3
g12
sg5
V1
p23
sg7
V001
p24
sba(i__main__
Line
p25
(dp26
g3
g20
sg5
V0
p27
sg7
V010
p28
sba(i__main__
Line
p29
(dp30
g3
g20
sg5
V1
p31
sg7
V011
p32
sba(i__main__
Line
p33
(dp34
g3
g4
sg5
V1
p35
sg7
V1
p36
sba(i__main__
Line
p37
(dp38
g3
g36
sg5
V0
p39
sg7
V10
p40
sba(i__main__
Line
p41
(dp42
g3
g36
sg5
V1
p43
sg7
V11
p44
sba(i__main__
Line
p45
(dp46
g3
g40
sg5
V0
p47
sg7
V100
p48
sba(i__main__
Line
p49
(dp50
g3
g40
sg5
V1
p51
sg7
V101
p52
sba(i__main__
Line
p53
(dp54
g3
g44
sg5
V0
p55
sg7
V110
p56
sba(i__main__
Line
p57
(dp58
g3
g44
sg5
V1
p59
sg7
V111
p60
sba(i__main__
Line
p61
(dp62
g3
g16
sg5
V0
p63
sg7
g16
sba(i__main__
Line
p64
(dp65
g3
g16
sg5
V1
p66
sg7
g24
sba(i__main__
Line
p67
(dp68
g3
g24
sg5
V0
p69
sg7
g28
sba(i__main__
Line
p70
(dp71
g3
g24
sg5
V1
p72
sg7
g32
sba(i__main__
Line
p73
(dp74
g3
g28
sg5
V0
p75
sg7
g48
sba(i__main__
Line
p76
(dp77
g3
g28
sg5
V1
p78
sg7
g52
sba(i__main__
Line
p79
(dp80
g3
g32
sg5
V0
p81
sg7
g32
sba(i__main__
Line
p82
(dp83
g3
g32
sg5
V1
p84
sg7
g32
sba(i__main__
Line
p85
(dp86
g3
g52
sg5
V0
p87
sg7
g52
sba(i__main__
Line
p88
(dp89
g3
g52
sg5
V1
p90
sg7
g52
sba(i__main__
Line
p91
(dp92
g3
g56
sg5
V1
p93
sg7
g52
sba(i__main__
Line
p94
(dp95
g3
g60
sg5
V1
p96
sg7
g60
sba(i__main__
Line
p97
(dp98
g3
g60
sg5
V0
p99
sg7
g56
sba(i__main__
Line
p100
(dp101
g3
g56
sg5
V0
p102
sg7
g56
sba(i__main__
Line
p103
(dp104
g3
g48
sg5
V1
p105
sg7
g24
sba(i__main__
Line
p106
(dp107
g3
g48
sg5
V0
p108
sg7
g16
sba.